target datalayout = "e-m:e-p270:32:32-p271:32:32-p272:64:64-i64:64-i128:128-f80:128-n8:16:32:64-S128"
target triple = "x86_64-pc-linux-gnu"

%struct.ForEachState = type { ptr, i32 }
%struct.List = type { i32, i32, i32, ptr, [0 x %union.ListCell] }
%union.ListCell = type { ptr }
%struct.FunctionCallInfoBaseData = type { ptr, ptr, ptr, i32, i8, i16, [0 x %struct.NullableDatum] }
%struct.NullableDatum = type { i64, i8 }
%struct.DefElem = type { i32, ptr, ptr, ptr, i32, i32 }
%struct.ClosestMatchState = type { ptr, i32, i32, ptr }
%struct.ConnectionOption = type { ptr, i32 }

@.str.1 = private unnamed_addr constant [10 x i8] c"foreign.c\00", align 1
@.str.10 = private unnamed_addr constant [20 x i8] c"invalid option \22%s\22\00", align 1
@.str.11 = private unnamed_addr constant [35 x i8] c"Perhaps you meant the option \22%s\22.\00", align 1
@.str.12 = private unnamed_addr constant [44 x i8] c"There are no valid options in this context.\00", align 1
@__func__.postgresql_fdw_validator = private unnamed_addr constant [25 x i8] c"postgresql_fdw_validator\00", align 1

; Function Attrs: inlinehint nounwind uwtable
define internal i64 @BoolGetDatum(i1 noundef zeroext %0) #3 {
  %2 = alloca i8, align 1
  %3 = zext i1 %0 to i8
  store i8 %3, ptr %2, align 1
  %4 = load i8, ptr %2, align 1, !range !4, !noundef !5
  %5 = trunc i8 %4 to i1
  %6 = select i1 %5, i32 1, i32 0
  %7 = sext i32 %6 to i64
  ret i64 %7
}

; Function Attrs: nounwind uwtable
define internal zeroext i1 @is_conninfo_option(ptr noundef %0, i32 noundef %1) #0 {
  %3 = alloca i1, align 1
  %4 = alloca ptr, align 8
  %5 = alloca i32, align 4
  %6 = alloca ptr, align 8
  %7 = alloca i32, align 4
  store ptr %0, ptr %4, align 8
  store i32 %1, ptr %5, align 4
  call void @llvm.lifetime.start.p0(i64 8, ptr %6) #9
  store ptr @libpq_conninfo_options, ptr %6, align 8
  br label %8

8:                                                ; preds = %28, %2
  %9 = load ptr, ptr %6, align 8
  %10 = getelementptr inbounds nuw %struct.ConnectionOption, ptr %9, i32 0, i32 0
  %11 = load ptr, ptr %10, align 8
  %12 = icmp ne ptr %11, null
  br i1 %12, label %13, label %31

13:                                               ; preds = %8
  %14 = load i32, ptr %5, align 4
  %15 = load ptr, ptr %6, align 8
  %16 = getelementptr inbounds nuw %struct.ConnectionOption, ptr %15, i32 0, i32 1
  %17 = load i32, ptr %16, align 8
  %18 = icmp eq i32 %14, %17
  br i1 %18, label %19, label %27

19:                                               ; preds = %13
  %20 = load ptr, ptr %6, align 8
  %21 = getelementptr inbounds nuw %struct.ConnectionOption, ptr %20, i32 0, i32 0
  %22 = load ptr, ptr %21, align 8
  %23 = load ptr, ptr %4, align 8
  %24 = call i32 @strcmp(ptr noundef %22, ptr noundef %23) #11
  %25 = icmp eq i32 %24, 0
  br i1 %25, label %26, label %27

26:                                               ; preds = %19
  store i1 true, ptr %3, align 1
  store i32 1, ptr %7, align 4
  br label %32

27:                                               ; preds = %19, %13
  br label %28

28:                                               ; preds = %27
  %29 = load ptr, ptr %6, align 8
  %30 = getelementptr inbounds nuw %struct.ConnectionOption, ptr %29, i32 1
  store ptr %30, ptr %6, align 8
  br label %8, !llvm.loop !12

31:                                               ; preds = %8
  store i1 false, ptr %3, align 1
  store i32 1, ptr %7, align 4
  br label %32

32:                                               ; preds = %31, %26
  call void @llvm.lifetime.end.p0(i64 8, ptr %6) #9
  %33 = load i1, ptr %3, align 1
  ret i1 %33
}

; Function Attrs: inlinehint nounwind uwtable
define internal i32 @DatumGetObjectId(i64 noundef %0) #3 {
  %2 = alloca i64, align 8
  store i64 %0, ptr %2, align 8
  %3 = load i64, ptr %2, align 8
  %4 = trunc i64 %3 to i32
  ret i32 %4
}

; Function Attrs: nounwind uwtable
define dso_local i64 @postgresql_fdw_validator(ptr noundef %0) #0 {
  %2 = alloca i64, align 8
  %3 = alloca ptr, align 8
  %4 = alloca ptr, align 8
  %5 = alloca i32, align 4
  %6 = alloca ptr, align 8
  %7 = alloca %struct.ForEachState, align 8
  %8 = alloca i32, align 4
  %9 = alloca ptr, align 8
  %10 = alloca ptr, align 8
  %11 = alloca ptr, align 8
  %12 = alloca %struct.ClosestMatchState, align 8
  %13 = alloca i8, align 1
  store ptr %0, ptr %3, align 8
  call void @llvm.lifetime.start.p0(i64 8, ptr %4) #9
  %14 = load ptr, ptr %3, align 8
  %15 = getelementptr inbounds nuw %struct.FunctionCallInfoBaseData, ptr %14, i32 0, i32 6
  %16 = getelementptr inbounds [0 x %struct.NullableDatum], ptr %15, i64 0, i64 0
  %17 = getelementptr inbounds nuw %struct.NullableDatum, ptr %16, i32 0, i32 0
  %18 = load i64, ptr %17, align 8
  %19 = call ptr @untransformRelOptions(i64 noundef %18)
  store ptr %19, ptr %4, align 8
  call void @llvm.lifetime.start.p0(i64 4, ptr %5) #9
  %20 = load ptr, ptr %3, align 8
  %21 = getelementptr inbounds nuw %struct.FunctionCallInfoBaseData, ptr %20, i32 0, i32 6
  %22 = getelementptr inbounds [0 x %struct.NullableDatum], ptr %21, i64 0, i64 1
  %23 = getelementptr inbounds nuw %struct.NullableDatum, ptr %22, i32 0, i32 0
  %24 = load i64, ptr %23, align 8
  %25 = call i32 @DatumGetObjectId(i64 noundef %24)
  store i32 %25, ptr %5, align 4
  call void @llvm.lifetime.start.p0(i64 8, ptr %6) #9
  call void @llvm.lifetime.start.p0(i64 16, ptr %7) #9
  %26 = getelementptr inbounds nuw %struct.ForEachState, ptr %7, i32 0, i32 0
  %27 = load ptr, ptr %4, align 8
  store ptr %27, ptr %26, align 8
  %28 = getelementptr inbounds nuw %struct.ForEachState, ptr %7, i32 0, i32 1
  store i32 0, ptr %28, align 8
  %29 = getelementptr i8, ptr %7, i64 12
  call void @llvm.memset.p0.i64(ptr align 4 %29, i8 0, i64 4, i1 false)
  br label %30

30:                                               ; preds = %121, %1
  %31 = getelementptr inbounds nuw %struct.ForEachState, ptr %7, i32 0, i32 0
  %32 = load ptr, ptr %31, align 8
  %33 = icmp ne ptr %32, null
  br i1 %33, label %34, label %51

34:                                               ; preds = %30
  %35 = getelementptr inbounds nuw %struct.ForEachState, ptr %7, i32 0, i32 1
  %36 = load i32, ptr %35, align 8
  %37 = getelementptr inbounds nuw %struct.ForEachState, ptr %7, i32 0, i32 0
  %38 = load ptr, ptr %37, align 8
  %39 = getelementptr inbounds nuw %struct.List, ptr %38, i32 0, i32 1
  %40 = load i32, ptr %39, align 4
  %41 = icmp slt i32 %36, %40
  br i1 %41, label %42, label %51

42:                                               ; preds = %34
  %43 = getelementptr inbounds nuw %struct.ForEachState, ptr %7, i32 0, i32 0
  %44 = load ptr, ptr %43, align 8
  %45 = getelementptr inbounds nuw %struct.List, ptr %44, i32 0, i32 3
  %46 = load ptr, ptr %45, align 8
  %47 = getelementptr inbounds nuw %struct.ForEachState, ptr %7, i32 0, i32 1
  %48 = load i32, ptr %47, align 8
  %49 = sext i32 %48 to i64
  %50 = getelementptr inbounds %union.ListCell, ptr %46, i64 %49
  store ptr %50, ptr %6, align 8
  br label %52

51:                                               ; preds = %34, %30
  store ptr null, ptr %6, align 8
  br label %52

52:                                               ; preds = %51, %42
  %53 = phi i32 [ 1, %42 ], [ 0, %51 ]
  %54 = icmp ne i32 %53, 0
  br i1 %54, label %56, label %55

55:                                               ; preds = %52
  store i32 2, ptr %8, align 4
  br label %125

56:                                               ; preds = %52
  call void @llvm.lifetime.start.p0(i64 8, ptr %9) #9
  %57 = load ptr, ptr %6, align 8
  %58 = load ptr, ptr %57, align 8
  store ptr %58, ptr %9, align 8
  %59 = load ptr, ptr %9, align 8
  %60 = getelementptr inbounds nuw %struct.DefElem, ptr %59, i32 0, i32 2
  %61 = load ptr, ptr %60, align 8
  %62 = load i32, ptr %5, align 4
  %63 = call zeroext i1 @is_conninfo_option(ptr noundef %61, i32 noundef %62)
  br i1 %63, label %117, label %64

64:                                               ; preds = %56
  call void @llvm.lifetime.start.p0(i64 8, ptr %10) #9
  call void @llvm.lifetime.start.p0(i64 8, ptr %11) #9
  call void @llvm.lifetime.start.p0(i64 24, ptr %12) #9
  call void @llvm.lifetime.start.p0(i64 1, ptr %13) #9
  store i8 0, ptr %13, align 1
  %65 = load ptr, ptr %9, align 8
  %66 = getelementptr inbounds nuw %struct.DefElem, ptr %65, i32 0, i32 2
  %67 = load ptr, ptr %66, align 8
  call void @initClosestMatch(ptr noundef %12, ptr noundef %67, i32 noundef 4)
  store ptr @libpq_conninfo_options, ptr %10, align 8
  br label %68

68:                                               ; preds = %84, %64
  %69 = load ptr, ptr %10, align 8
  %70 = getelementptr inbounds nuw %struct.ConnectionOption, ptr %69, i32 0, i32 0
  %71 = load ptr, ptr %70, align 8
  %72 = icmp ne ptr %71, null
  br i1 %72, label %73, label %87

73:                                               ; preds = %68
  %74 = load i32, ptr %5, align 4
  %75 = load ptr, ptr %10, align 8
  %76 = getelementptr inbounds nuw %struct.ConnectionOption, ptr %75, i32 0, i32 1
  %77 = load i32, ptr %76, align 8
  %78 = icmp eq i32 %74, %77
  br i1 %78, label %79, label %83

79:                                               ; preds = %73
  store i8 1, ptr %13, align 1
  %80 = load ptr, ptr %10, align 8
  %81 = getelementptr inbounds nuw %struct.ConnectionOption, ptr %80, i32 0, i32 0
  %82 = load ptr, ptr %81, align 8
  call void @updateClosestMatch(ptr noundef %12, ptr noundef %82)
  br label %83

83:                                               ; preds = %79, %73
  br label %84

84:                                               ; preds = %83
  %85 = load ptr, ptr %10, align 8
  %86 = getelementptr inbounds nuw %struct.ConnectionOption, ptr %85, i32 1
  store ptr %86, ptr %10, align 8
  br label %68, !llvm.loop !10

87:                                               ; preds = %68
  %88 = call ptr @getClosestMatch(ptr noundef %12)
  store ptr %88, ptr %11, align 8
  br label %89

89:                                               ; preds = %87
  br i1 true, label %90, label %92

90:                                               ; preds = %89
  %91 = call zeroext i1 @errstart_cold(i32 noundef 21, ptr noundef null) #10
  br i1 %91, label %94, label %113

92:                                               ; preds = %89
  %93 = call zeroext i1 @errstart(i32 noundef 21, ptr noundef null)
  br i1 %93, label %94, label %113

94:                                               ; preds = %92, %90
  %95 = call i32 @errcode(i32 noundef 16801924)
  %96 = load ptr, ptr %9, align 8
  %97 = getelementptr inbounds nuw %struct.DefElem, ptr %96, i32 0, i32 2
  %98 = load ptr, ptr %97, align 8
  %99 = call i32 (ptr, ...) @errmsg(ptr noundef @.str.10, ptr noundef %98)
  %100 = load i8, ptr %13, align 1, !range !4, !noundef !5
  %101 = trunc i8 %100 to i1
  br i1 %101, label %102, label %110

102:                                              ; preds = %94
  %103 = load ptr, ptr %11, align 8
  %104 = icmp ne ptr %103, null
  br i1 %104, label %105, label %108

105:                                              ; preds = %102
  %106 = load ptr, ptr %11, align 8
  %107 = call i32 (ptr, ...) @errhint(ptr noundef @.str.11, ptr noundef %106)
  br label %109

108:                                              ; preds = %102
  br label %109

109:                                              ; preds = %108, %105
  br label %112

110:                                              ; preds = %94
  %111 = call i32 (ptr, ...) @errhint(ptr noundef @.str.12)
  br label %112

112:                                              ; preds = %110, %109
  call void @errfinish(ptr noundef @.str.1, i32 noundef 664, ptr noundef @__func__.postgresql_fdw_validator)
  br label %113

113:                                              ; preds = %112, %92, %90
  unreachable

114:                                              ; No predecessors!
  br label %115

115:                                              ; preds = %114
  %116 = call i64 @BoolGetDatum(i1 noundef zeroext false)
  store i64 %116, ptr %2, align 8
  store i32 1, ptr %8, align 4
  call void @llvm.lifetime.end.p0(i64 1, ptr %13) #9
  call void @llvm.lifetime.end.p0(i64 24, ptr %12) #9
  call void @llvm.lifetime.end.p0(i64 8, ptr %11) #9
  call void @llvm.lifetime.end.p0(i64 8, ptr %10) #9
  br label %118

117:                                              ; preds = %56
  store i32 0, ptr %8, align 4
  br label %118

118:                                              ; preds = %117, %115
  call void @llvm.lifetime.end.p0(i64 8, ptr %9) #9
  %119 = load i32, ptr %8, align 4
  switch i32 %119, label %125 [
    i32 0, label %120
  ]

120:                                              ; preds = %118
  br label %121

121:                                              ; preds = %120
  %122 = getelementptr inbounds nuw %struct.ForEachState, ptr %7, i32 0, i32 1
  %123 = load i32, ptr %122, align 8
  %124 = add i32 %123, 1
  store i32 %124, ptr %122, align 8
  br label %30, !llvm.loop !11

125:                                              ; preds = %118, %55
  call void @llvm.lifetime.end.p0(i64 16, ptr %7) #9
  %126 = load i32, ptr %8, align 4
  switch i32 %126, label %129 [
    i32 2, label %127
  ]

127:                                              ; preds = %125
  %128 = call i64 @BoolGetDatum(i1 noundef zeroext true)
  store i64 %128, ptr %2, align 8
  store i32 1, ptr %8, align 4
  br label %129

129:                                              ; preds = %127, %125
  call void @llvm.lifetime.end.p0(i64 8, ptr %6) #9
  call void @llvm.lifetime.end.p0(i64 4, ptr %5) #9
  call void @llvm.lifetime.end.p0(i64 8, ptr %4) #9
  %130 = load i64, ptr %2, align 8
  ret i64 %130
}