; Function Attrs: nounwind uwtable
define dso_local noundef i64 @postgresql_fdw_validator(ptr noundef readonly captures(none) %0) local_unnamed_addr #0 {
  %2 = alloca %struct.ClosestMatchState, align 8
  %3 = getelementptr inbounds nuw i8, ptr %0, i64 32
  %4 = load i64, ptr %3, align 8
  %5 = tail call ptr @untransformRelOptions(i64 noundef %4) #8
  %6 = getelementptr inbounds nuw i8, ptr %0, i64 48
  %7 = load i64, ptr %6, align 8
  %8 = trunc i64 %7 to i32
  %.not = icmp eq ptr %5, null
  br i1 %.not, label %._crit_edge, label %.lr.ph

.lr.ph:                                           ; preds = %1
  %9 = getelementptr inbounds nuw i8, ptr %5, i64 4
  %10 = load i32, ptr %9, align 4
  %11 = icmp sgt i32 %10, 0
  br i1 %11, label %.lr.ph40, label %._crit_edge

.lr.ph40:                                         ; preds = %.lr.ph
  %12 = getelementptr inbounds nuw i8, ptr %5, i64 16
  %13 = load ptr, ptr %12, align 8
  %wide.trip.count = zext nneg i32 %10 to i64
  br label %14

14:                                               ; preds = %.lr.ph40, %52
  %indvars.iv = phi i64 [ 0, %.lr.ph40 ], [ %indvars.iv.next, %52 ]
  %15 = getelementptr inbounds nuw %union.ListCell, ptr %13, i64 %indvars.iv
  %16 = load ptr, ptr %15, align 8
  %17 = getelementptr inbounds nuw i8, ptr %16, i64 16
  %18 = load ptr, ptr %17, align 8
  br label %19

19:                                               ; preds = %27, %14
  %20 = phi ptr [ @.str.15, %14 ], [ %29, %27 ]
  %.08.i = phi ptr [ @libpq_conninfo_options, %14 ], [ %28, %27 ]
  %21 = getelementptr inbounds nuw i8, ptr %.08.i, i64 8
  %22 = load i32, ptr %21, align 8
  %23 = icmp eq i32 %22, %8
  br i1 %23, label %24, label %27

24:                                               ; preds = %19
  %25 = tail call i32 @strcmp(ptr noundef nonnull dereferenceable(1) %20, ptr noundef nonnull readonly dereferenceable(1) %18) #10
  %26 = icmp eq i32 %25, 0
  br i1 %26, label %52, label %27

27:                                               ; preds = %24, %19
  %28 = getelementptr inbounds nuw i8, ptr %.08.i, i64 16
  %29 = load ptr, ptr %28, align 8
  %.not.not.i = icmp eq ptr %29, null
  br i1 %.not.not.i, label %is_conninfo_option.exit, label %19, !llvm.loop !7

is_conninfo_option.exit:                          ; preds = %27
  %30 = getelementptr inbounds nuw i8, ptr %16, i64 16
  call void @llvm.lifetime.start.p0(i64 24, ptr nonnull %2) #8
  call void @initClosestMatch(ptr noundef nonnull %2, ptr noundef %18, i32 noundef 4) #8
  br label %31

31:                                               ; preds = %is_conninfo_option.exit, %37
  %32 = phi ptr [ @.str.15, %is_conninfo_option.exit ], [ %39, %37 ]
  %.042 = phi i1 [ false, %is_conninfo_option.exit ], [ %.1, %37 ]
  %.02441 = phi ptr [ @libpq_conninfo_options, %is_conninfo_option.exit ], [ %38, %37 ]
  %33 = getelementptr inbounds nuw i8, ptr %.02441, i64 8
  %34 = load i32, ptr %33, align 8
  %35 = icmp eq i32 %34, %8
  br i1 %35, label %36, label %37

36:                                               ; preds = %31
  call void @updateClosestMatch(ptr noundef nonnull %2, ptr noundef nonnull %32) #8
  br label %37

37:                                               ; preds = %31, %36
  %.1 = phi i1 [ true, %36 ], [ %.042, %31 ]
  %38 = getelementptr inbounds nuw i8, ptr %.02441, i64 16
  %39 = load ptr, ptr %38, align 8
  %.not31 = icmp eq ptr %39, null
  br i1 %.not31, label %40, label %31, !llvm.loop !9

40:                                               ; preds = %37
  %41 = call ptr @getClosestMatch(ptr noundef nonnull %2) #8
  %42 = call zeroext i1 @errstart_cold(i32 noundef 21, ptr noundef null) #9
  call void @llvm.assume(i1 %42)
  %43 = call i32 @errcode(i32 noundef 16801924) #8
  %44 = load ptr, ptr %30, align 8
  %45 = call i32 (ptr, ...) @errmsg(ptr noundef nonnull @.str.10, ptr noundef %44) #8
  br i1 %.1, label %46, label %49

46:                                               ; preds = %40
  %.not32 = icmp eq ptr %41, null
  br i1 %.not32, label %51, label %47

47:                                               ; preds = %46
  %48 = call i32 (ptr, ...) @errhint(ptr noundef nonnull @.str.11, ptr noundef nonnull %41) #8
  br label %51

49:                                               ; preds = %40
  %50 = call i32 (ptr, ...) @errhint(ptr noundef nonnull @.str.12) #8
  br label %51

51:                                               ; preds = %47, %46, %49
  call void @errfinish(ptr noundef nonnull @.str.1, i32 noundef 664, ptr noundef nonnull @__func__.postgresql_fdw_validator) #8
  unreachable

52:                                               ; preds = %24
  %indvars.iv.next = add nuw nsw i64 %indvars.iv, 1
  %exitcond.not = icmp eq i64 %indvars.iv.next, %wide.trip.count
  br i1 %exitcond.not, label %._crit_edge, label %14

._crit_edge:                                      ; preds = %52, %.lr.ph, %1
  ret i64 1
}